target datalayout = "e-m:e-p270:32:32-p271:32:32-p272:64:64-i64:64-i128:128-f80:128-n8:16:32:64-S128"
target triple = "x86_64-pc-linux-gnu"

%"class.boost::container::pmr::monotonic_buffer_resource" = type { %"class.boost::container::pmr::memory_resource", %"class.boost::container::pmr::block_slist", ptr, i64, i64, ptr, i64 }
%"class.boost::container::pmr::memory_resource" = type { ptr }
%"class.boost::container::pmr::block_slist" = type { %"class.boost::container::pmr::block_slist_base", ptr }
%"class.boost::container::pmr::block_slist_base" = type { %"struct.boost::container::pmr::slist_node" }
%"struct.boost::container::pmr::slist_node" = type { ptr }
%"struct.boost::container::pmr::block_slist_header" = type { %"struct.boost::container::pmr::slist_node", i64 }

@_ZTISt9bad_alloc = external constant ptr
@_ZTVSt9bad_alloc = available_externally unnamed_addr constant { [5 x ptr] } { [5 x ptr] [ptr null, ptr @_ZTISt9bad_alloc, ptr @_ZNSt9bad_allocD1Ev, ptr @_ZNSt9bad_allocD0Ev, ptr @_ZNKSt9bad_alloc4whatEv] }, align 8
@_ZTVSt9exception = available_externally unnamed_addr constant { [5 x ptr] } { [5 x ptr] [ptr null, ptr @_ZTISt9exception, ptr @_ZNSt9exceptionD1Ev, ptr @_ZNSt9exceptionD0Ev, ptr @_ZNKSt9exception4whatEv] }, align 8

; Function Attrs: mustprogress nounwind uwtable
define linkonce_odr hidden noundef i64 @_ZN5boost9intrusive6detail20builtin_clz_dispatchImE4callEm(i64 noundef %0) #0 comdat align 2 {
  %2 = alloca i64, align 8
  store i64 %0, ptr %2, align 8, !tbaa !14
  %3 = load i64, ptr %2, align 8, !tbaa !14
  %4 = call i64 @llvm.ctlz.i64(i64 %3, i1 true)
  %5 = trunc i64 %4 to i32
  %6 = sext i32 %5 to i64
  ret i64 %6
}

; Function Attrs: mustprogress nounwind uwtable
define linkonce_odr hidden void @_ZN5boost9container3pmr17slist_node_traits8set_nextERKPNS1_10slist_nodeES6_(ptr noundef nonnull align 8 dereferenceable(8) %0, ptr noundef nonnull align 8 dereferenceable(8) %1) #0 comdat align 2 {
  %3 = alloca ptr, align 8
  %4 = alloca ptr, align 8
  store ptr %0, ptr %3, align 8, !tbaa !3
  store ptr %1, ptr %4, align 8, !tbaa !3
  %5 = load ptr, ptr %4, align 8, !tbaa !3
  %6 = load ptr, ptr %5, align 8, !tbaa !3
  %7 = load ptr, ptr %3, align 8, !tbaa !3
  %8 = load ptr, ptr %7, align 8, !tbaa !3
  %9 = getelementptr inbounds nuw %"struct.boost::container::pmr::slist_node", ptr %8, i32 0, i32 0
  store ptr %6, ptr %9, align 8, !tbaa !22
  ret void
}

; Function Attrs: mustprogress nounwind uwtable
define linkonce_odr hidden noundef ptr @_ZN5boost9container3pmr17slist_node_traits8get_nextEPKNS1_10slist_nodeE(ptr noundef %0) #0 comdat align 2 {
  %2 = alloca ptr, align 8
  store ptr %0, ptr %2, align 8, !tbaa !3
  %3 = load ptr, ptr %2, align 8, !tbaa !3
  %4 = getelementptr inbounds nuw %"struct.boost::container::pmr::slist_node", ptr %3, i32 0, i32 0
  %5 = load ptr, ptr %4, align 8, !tbaa !22
  ret ptr %5
}

; Function Attrs: inlinehint mustprogress uwtable
define linkonce_odr hidden noundef i64 @_ZN5boost9intrusive6detail10floor_log2Em(i64 noundef %0) #3 comdat {
  %2 = alloca i64, align 8
  store i64 %0, ptr %2, align 8, !tbaa !14
  %3 = load i64, ptr %2, align 8, !tbaa !14
  %4 = call noundef i64 @_ZN5boost9intrusive6detail20builtin_clz_dispatchImE4callEm(i64 noundef %3)
  %5 = sub i64 63, %4
  ret i64 %5
}

; Function Attrs: mustprogress nounwind uwtable
define linkonce_odr hidden void @_ZN5boost9intrusive6detail23common_slist_algorithmsINS_9container3pmr17slist_node_traitsEE10link_afterEPNS4_10slist_nodeES8_(ptr noundef %0, ptr noundef %1) #0 comdat align 2 {
  %3 = alloca ptr, align 8
  %4 = alloca ptr, align 8
  %5 = alloca ptr, align 8
  store ptr %0, ptr %3, align 8, !tbaa !3
  store ptr %1, ptr %4, align 8, !tbaa !3
  call void @llvm.lifetime.start.p0(i64 8, ptr %5) #11
  %6 = load ptr, ptr %3, align 8, !tbaa !3
  %7 = call noundef ptr @_ZN5boost9container3pmr17slist_node_traits8get_nextEPKNS1_10slist_nodeE(ptr noundef %6)
  store ptr %7, ptr %5, align 8, !tbaa !3
  call void @_ZN5boost9container3pmr17slist_node_traits8set_nextERKPNS1_10slist_nodeES6_(ptr noundef nonnull align 8 dereferenceable(8) %4, ptr noundef nonnull align 8 dereferenceable(8) %5)
  call void @llvm.lifetime.end.p0(i64 8, ptr %5) #11
  call void @_ZN5boost9container3pmr17slist_node_traits8set_nextERKPNS1_10slist_nodeES6_(ptr noundef nonnull align 8 dereferenceable(8) %3, ptr noundef nonnull align 8 dereferenceable(8) %4)
  ret void
}

; Function Attrs: inlinehint mustprogress nounwind uwtable
define linkonce_odr hidden noundef ptr @_ZnwmPv21boost_container_new_t(i64 noundef %0, ptr noundef %1) #2 comdat {
  %3 = alloca i64, align 8
  %4 = alloca ptr, align 8
  store i64 %0, ptr %3, align 8, !tbaa !14
  store ptr %1, ptr %4, align 8, !tbaa !3
  %5 = load ptr, ptr %4, align 8, !tbaa !3
  ret ptr %5
}

; Function Attrs: mustprogress uwtable
define linkonce_odr hidden noundef ptr @_ZN5boost9container3pmr15memory_resource8allocateEmm(ptr noundef nonnull align 8 dereferenceable(8) %0, i64 noundef %1, i64 noundef %2) #1 comdat align 2 {
  %4 = alloca ptr, align 8
  %5 = alloca i64, align 8
  %6 = alloca i64, align 8
  store ptr %0, ptr %4, align 8, !tbaa !3
  store i64 %1, ptr %5, align 8, !tbaa !14
  store i64 %2, ptr %6, align 8, !tbaa !14
  %7 = load ptr, ptr %4, align 8
  %8 = load i64, ptr %5, align 8, !tbaa !14
  %9 = load i64, ptr %5, align 8, !tbaa !14
  %10 = load i64, ptr %6, align 8, !tbaa !14
  %11 = load ptr, ptr %7, align 8, !tbaa !15
  %12 = getelementptr inbounds ptr, ptr %11, i64 2
  %13 = load ptr, ptr %12, align 8
  %14 = call noundef ptr %13(ptr noundef nonnull align 8 dereferenceable(8) %7, i64 noundef %9, i64 noundef %10)
  %15 = call noundef ptr @_ZnwmPv21boost_container_new_t(i64 noundef %8, ptr noundef %14)
  ret ptr %15
}

; Function Attrs: inlinehint mustprogress uwtable
define linkonce_odr hidden noundef i64 @_ZN5boost9intrusive6detail9ceil_log2Em(i64 noundef %0) #3 comdat {
  %2 = alloca i64, align 8
  store i64 %0, ptr %2, align 8, !tbaa !14
  %3 = load i64, ptr %2, align 8, !tbaa !14
  %4 = call noundef zeroext i1 @_ZN5boost9intrusive6detail7is_pow2Em(i64 noundef %3)
  %5 = xor i1 %4, true
  %6 = zext i1 %5 to i64
  %7 = load i64, ptr %2, align 8, !tbaa !14
  %8 = call noundef i64 @_ZN5boost9intrusive6detail10floor_log2Em(i64 noundef %7)
  %9 = add i64 %6, %8
  ret i64 %9
}

; Function Attrs: mustprogress uwtable
define linkonce_odr hidden noundef ptr @_ZN5boost9container3pmr16block_slist_baseINS1_18block_slist_headerEE8allocateEmRNS1_15memory_resourceE(ptr noundef nonnull align 8 dereferenceable(8) %0, i64 noundef %1, ptr noundef nonnull align 8 dereferenceable(8) %2) #1 comdat align 2 {
  %4 = alloca ptr, align 8
  %5 = alloca i64, align 8
  %6 = alloca ptr, align 8
  %7 = alloca ptr, align 8
  %8 = alloca ptr, align 8
  store ptr %0, ptr %4, align 8, !tbaa !3
  store i64 %1, ptr %5, align 8, !tbaa !14
  store ptr %2, ptr %6, align 8, !tbaa !3
  %9 = load ptr, ptr %4, align 8
  %10 = load i64, ptr %5, align 8, !tbaa !14
  %11 = icmp ult i64 -17, %10
  br i1 %11, label %12, label %13

12:                                               ; preds = %3
  call void @_ZN5boost9container15throw_bad_allocEv() #14
  unreachable

13:                                               ; preds = %3
  call void @llvm.lifetime.start.p0(i64 8, ptr %7) #11
  %14 = load ptr, ptr %6, align 8, !tbaa !3
  %15 = load i64, ptr %5, align 8, !tbaa !14
  %16 = add i64 %15, 16
  %17 = call noundef ptr @_ZN5boost9container3pmr15memory_resource8allocateEmm(ptr noundef nonnull align 8 dereferenceable(8) %14, i64 noundef %16, i64 noundef 16)
  store ptr %17, ptr %7, align 8, !tbaa !3
  call void @llvm.lifetime.start.p0(i64 8, ptr %8) #11
  %18 = load ptr, ptr %7, align 8, !tbaa !3
  %19 = call noundef ptr @_ZnwmPv21boost_container_new_t(i64 noundef 16, ptr noundef %18)
  store ptr %19, ptr %8, align 8, !tbaa !3
  %20 = load i64, ptr %5, align 8, !tbaa !14
  %21 = add i64 %20, 16
  %22 = load ptr, ptr %8, align 8, !tbaa !3
  %23 = getelementptr inbounds nuw %"struct.boost::container::pmr::block_slist_header", ptr %22, i32 0, i32 1
  store i64 %21, ptr %23, align 8, !tbaa !23
  %24 = getelementptr inbounds nuw %"class.boost::container::pmr::block_slist_base", ptr %9, i32 0, i32 0
  %25 = load ptr, ptr %8, align 8, !tbaa !3
  call void @_ZN5boost9intrusive6detail23common_slist_algorithmsINS_9container3pmr17slist_node_traitsEE10link_afterEPNS4_10slist_nodeES8_(ptr noundef %24, ptr noundef %25) #11
  %26 = load ptr, ptr %7, align 8, !tbaa !3
  %27 = getelementptr inbounds nuw i8, ptr %26, i64 16
  call void @llvm.lifetime.end.p0(i64 8, ptr %8) #11
  call void @llvm.lifetime.end.p0(i64 8, ptr %7) #11
  ret ptr %27
}

; Function Attrs: inlinehint mustprogress uwtable
define linkonce_odr hidden noundef i64 @_ZN5boost9intrusive6detail9ceil_pow2Em(i64 noundef %0) #3 comdat {
  %2 = alloca i64, align 8
  store i64 %0, ptr %2, align 8, !tbaa !14
  %3 = load i64, ptr %2, align 8, !tbaa !14
  %4 = call noundef i64 @_ZN5boost9intrusive6detail9ceil_log2Em(i64 noundef %3)
  %5 = shl i64 1, %4
  ret i64 %5
}

; Function Attrs: inlinehint mustprogress nounwind uwtable
define linkonce_odr hidden noundef zeroext i1 @_ZN5boost9intrusive6detail7is_pow2Em(i64 noundef %0) #2 comdat {
  %2 = alloca i64, align 8
  store i64 %0, ptr %2, align 8, !tbaa !14
  %3 = load i64, ptr %2, align 8, !tbaa !14
  %4 = load i64, ptr %2, align 8, !tbaa !14
  %5 = sub i64 %4, 1
  %6 = and i64 %3, %5
  %7 = icmp eq i64 %6, 0
  ret i1 %7
}

; Function Attrs: mustprogress nounwind uwtable
define linkonce_odr hidden void @_ZNSt9exceptionC2Ev(ptr noundef nonnull align 8 dereferenceable(8) %0) unnamed_addr #0 comdat align 2 {
  %2 = alloca ptr, align 8
  store ptr %0, ptr %2, align 8, !tbaa !3
  %3 = load ptr, ptr %2, align 8
  store ptr getelementptr inbounds inrange(-16, 24) ({ [5 x ptr] }, ptr @_ZTVSt9exception, i32 0, i32 0, i32 2), ptr %3, align 8, !tbaa !15
  ret void
}

; Function Attrs: mustprogress nounwind uwtable
define noundef ptr @_ZN5boost9container3pmr25monotonic_buffer_resource21allocate_from_currentEmm(ptr noundef nonnull align 8 dereferenceable(64) %0, i64 noundef %1, i64 noundef %2) #0 align 2 {
  %4 = alloca ptr, align 8
  %5 = alloca i64, align 8
  %6 = alloca i64, align 8
  %7 = alloca ptr, align 8
  store ptr %0, ptr %4, align 8, !tbaa !3
  store i64 %1, ptr %5, align 8, !tbaa !14
  store i64 %2, ptr %6, align 8, !tbaa !14
  %8 = load ptr, ptr %4, align 8
  call void @llvm.lifetime.start.p0(i64 8, ptr %7) #11
  %9 = getelementptr inbounds nuw %"class.boost::container::pmr::monotonic_buffer_resource", ptr %8, i32 0, i32 2
  %10 = load ptr, ptr %9, align 8, !tbaa !17
  %11 = load i64, ptr %5, align 8, !tbaa !14
  %12 = getelementptr inbounds nuw i8, ptr %10, i64 %11
  store ptr %12, ptr %7, align 8, !tbaa !3
  %13 = load ptr, ptr %7, align 8, !tbaa !3
  %14 = load i64, ptr %6, align 8, !tbaa !14
  %15 = getelementptr inbounds nuw i8, ptr %13, i64 %14
  %16 = getelementptr inbounds nuw %"class.boost::container::pmr::monotonic_buffer_resource", ptr %8, i32 0, i32 2
  store ptr %15, ptr %16, align 8, !tbaa !17
  %17 = load i64, ptr %5, align 8, !tbaa !14
  %18 = load i64, ptr %6, align 8, !tbaa !14
  %19 = add i64 %17, %18
  %20 = getelementptr inbounds nuw %"class.boost::container::pmr::monotonic_buffer_resource", ptr %8, i32 0, i32 3
  %21 = load i64, ptr %20, align 8, !tbaa !18
  %22 = sub i64 %21, %19
  store i64 %22, ptr %20, align 8, !tbaa !18
  %23 = load ptr, ptr %7, align 8, !tbaa !3
  call void @llvm.lifetime.end.p0(i64 8, ptr %7) #11
  ret ptr %23
}

; Function Attrs: mustprogress nounwind uwtable
define void @_ZN5boost9container3pmr25monotonic_buffer_resource20increase_next_bufferEv(ptr noundef nonnull align 8 dereferenceable(64) %0) #0 align 2 {
  %2 = alloca ptr, align 8
  store ptr %0, ptr %2, align 8, !tbaa !3
  %3 = load ptr, ptr %2, align 8
  %4 = getelementptr inbounds nuw %"class.boost::container::pmr::monotonic_buffer_resource", ptr %3, i32 0, i32 4
  %5 = load i64, ptr %4, align 8, !tbaa !7
  %6 = icmp ult i64 9223372036854775807, %5
  br i1 %6, label %7, label %8

7:                                                ; preds = %1
  br label %12

8:                                                ; preds = %1
  %9 = getelementptr inbounds nuw %"class.boost::container::pmr::monotonic_buffer_resource", ptr %3, i32 0, i32 4
  %10 = load i64, ptr %9, align 8, !tbaa !7
  %11 = mul i64 %10, 2
  br label %12

12:                                               ; preds = %8, %7
  %13 = phi i64 [ -1, %7 ], [ %11, %8 ]
  %14 = getelementptr inbounds nuw %"class.boost::container::pmr::monotonic_buffer_resource", ptr %3, i32 0, i32 4
  store i64 %13, ptr %14, align 8, !tbaa !7
  ret void
}

; Function Attrs: mustprogress uwtable
define linkonce_odr hidden noundef ptr @_ZN5boost9container3pmr11block_slist8allocateEm(ptr noundef nonnull align 8 dereferenceable(16) %0, i64 noundef %1) #1 comdat align 2 {
  %3 = alloca ptr, align 8
  %4 = alloca i64, align 8
  store ptr %0, ptr %3, align 8, !tbaa !3
  store i64 %1, ptr %4, align 8, !tbaa !14
  %5 = load ptr, ptr %3, align 8
  %6 = load i64, ptr %4, align 8, !tbaa !14
  %7 = getelementptr inbounds nuw %"class.boost::container::pmr::block_slist", ptr %5, i32 0, i32 1
  %8 = load ptr, ptr %7, align 8, !tbaa !21
  %9 = call noundef ptr @_ZN5boost9container3pmr16block_slist_baseINS1_18block_slist_headerEE8allocateEmRNS1_15memory_resourceE(ptr noundef nonnull align 8 dereferenceable(8) %5, i64 noundef %6, ptr noundef nonnull align 8 dereferenceable(8) %8)
  ret ptr %9
}

; Function Attrs: mustprogress uwtable
define void @_ZN5boost9container3pmr25monotonic_buffer_resource32increase_next_buffer_at_least_toEm(ptr noundef nonnull align 8 dereferenceable(64) %0, i64 noundef %1) #1 align 2 {
  %3 = alloca ptr, align 8
  %4 = alloca i64, align 8
  store ptr %0, ptr %3, align 8, !tbaa !3
  store i64 %1, ptr %4, align 8, !tbaa !14
  %5 = load ptr, ptr %3, align 8
  %6 = getelementptr inbounds nuw %"class.boost::container::pmr::monotonic_buffer_resource", ptr %5, i32 0, i32 4
  %7 = load i64, ptr %6, align 8, !tbaa !7
  %8 = load i64, ptr %4, align 8, !tbaa !14
  %9 = icmp ult i64 %7, %8
  br i1 %9, label %10, label %28

10:                                               ; preds = %2
  %11 = load i64, ptr %4, align 8, !tbaa !14
  %12 = call noundef zeroext i1 @_ZN5boost9intrusive6detail7is_pow2Em(i64 noundef %11)
  br i1 %12, label %13, label %16

13:                                               ; preds = %10
  %14 = load i64, ptr %4, align 8, !tbaa !14
  %15 = getelementptr inbounds nuw %"class.boost::container::pmr::monotonic_buffer_resource", ptr %5, i32 0, i32 4
  store i64 %14, ptr %15, align 8, !tbaa !7
  br label %27

16:                                               ; preds = %10
  %17 = load i64, ptr %4, align 8, !tbaa !14
  %18 = icmp ult i64 9223372036854775807, %17
  br i1 %18, label %19, label %22

19:                                               ; preds = %16
  %20 = load i64, ptr %4, align 8, !tbaa !14
  %21 = getelementptr inbounds nuw %"class.boost::container::pmr::monotonic_buffer_resource", ptr %5, i32 0, i32 4
  store i64 %20, ptr %21, align 8, !tbaa !7
  br label %26

22:                                               ; preds = %16
  %23 = load i64, ptr %4, align 8, !tbaa !14
  %24 = call noundef i64 @_ZN5boost9intrusive6detail9ceil_pow2Em(i64 noundef %23)
  %25 = getelementptr inbounds nuw %"class.boost::container::pmr::monotonic_buffer_resource", ptr %5, i32 0, i32 4
  store i64 %24, ptr %25, align 8, !tbaa !7
  br label %26

26:                                               ; preds = %22, %19
  br label %27

27:                                               ; preds = %26, %13
  br label %28

28:                                               ; preds = %27, %2
  ret void
}

; Function Attrs: mustprogress nounwind uwtable
define noundef i64 @_ZNK5boost9container3pmr25monotonic_buffer_resource17remaining_storageEmRm(ptr noundef nonnull align 8 dereferenceable(64) %0, i64 noundef %1, ptr noundef nonnull align 8 dereferenceable(8) %2) #0 align 2 {
  %4 = alloca ptr, align 8
  %5 = alloca i64, align 8
  %6 = alloca ptr, align 8
  %7 = alloca i64, align 8
  %8 = alloca i64, align 8
  %9 = alloca i64, align 8
  %10 = alloca i64, align 8
  store ptr %0, ptr %4, align 8, !tbaa !3
  store i64 %1, ptr %5, align 8, !tbaa !14
  store ptr %2, ptr %6, align 8, !tbaa !3
  %11 = load ptr, ptr %4, align 8
  call void @llvm.lifetime.start.p0(i64 8, ptr %7) #11
  %12 = load i64, ptr %5, align 8, !tbaa !14
  %13 = sub i64 %12, 1
  store i64 %13, ptr %7, align 8, !tbaa !14
  call void @llvm.lifetime.start.p0(i64 8, ptr %8) #11
  %14 = load i64, ptr %7, align 8, !tbaa !14
  %15 = xor i64 %14, -1
  store i64 %15, ptr %8, align 8, !tbaa !14
  call void @llvm.lifetime.start.p0(i64 8, ptr %9) #11
  %16 = getelementptr inbounds nuw %"class.boost::container::pmr::monotonic_buffer_resource", ptr %11, i32 0, i32 2
  %17 = load ptr, ptr %16, align 8, !tbaa !17
  %18 = ptrtoint ptr %17 to i64
  store i64 %18, ptr %9, align 8, !tbaa !14
  call void @llvm.lifetime.start.p0(i64 8, ptr %10) #11
  %19 = load i64, ptr %9, align 8, !tbaa !14
  %20 = load i64, ptr %7, align 8, !tbaa !14
  %21 = add i64 %19, %20
  %22 = load i64, ptr %8, align 8, !tbaa !14
  %23 = and i64 %21, %22
  store i64 %23, ptr %10, align 8, !tbaa !14
  %24 = load i64, ptr %10, align 8, !tbaa !14
  %25 = load i64, ptr %9, align 8, !tbaa !14
  %26 = sub i64 %24, %25
  %27 = load ptr, ptr %6, align 8, !tbaa !3
  store i64 %26, ptr %27, align 8, !tbaa !14
  %28 = getelementptr inbounds nuw %"class.boost::container::pmr::monotonic_buffer_resource", ptr %11, i32 0, i32 3
  %29 = load i64, ptr %28, align 8, !tbaa !18
  %30 = load ptr, ptr %6, align 8, !tbaa !3
  %31 = load i64, ptr %30, align 8, !tbaa !14
  %32 = icmp ule i64 %29, %31
  br i1 %32, label %33, label %34

33:                                               ; preds = %3
  br label %40

34:                                               ; preds = %3
  %35 = getelementptr inbounds nuw %"class.boost::container::pmr::monotonic_buffer_resource", ptr %11, i32 0, i32 3
  %36 = load i64, ptr %35, align 8, !tbaa !18
  %37 = load ptr, ptr %6, align 8, !tbaa !3
  %38 = load i64, ptr %37, align 8, !tbaa !14
  %39 = sub i64 %36, %38
  br label %40

40:                                               ; preds = %34, %33
  %41 = phi i64 [ 0, %33 ], [ %39, %34 ]
  call void @llvm.lifetime.end.p0(i64 8, ptr %10) #11
  call void @llvm.lifetime.end.p0(i64 8, ptr %9) #11
  call void @llvm.lifetime.end.p0(i64 8, ptr %8) #11
  call void @llvm.lifetime.end.p0(i64 8, ptr %7) #11
  ret i64 %41
}

; Function Attrs: mustprogress nounwind uwtable
define linkonce_odr hidden void @_ZNSt9bad_allocC2Ev(ptr noundef nonnull align 8 dereferenceable(8) %0) unnamed_addr #0 comdat align 2 {
  %2 = alloca ptr, align 8
  store ptr %0, ptr %2, align 8, !tbaa !3
  %3 = load ptr, ptr %2, align 8
  call void @_ZNSt9exceptionC2Ev(ptr noundef nonnull align 8 dereferenceable(8) %3) #11
  store ptr getelementptr inbounds inrange(-16, 24) ({ [5 x ptr] }, ptr @_ZTVSt9bad_alloc, i32 0, i32 0, i32 2), ptr %3, align 8, !tbaa !15
  ret void
}

; Function Attrs: mustprogress uwtable
define noundef ptr @_ZN5boost9container3pmr25monotonic_buffer_resource11do_allocateEmm(ptr noundef nonnull align 8 dereferenceable(64) %0, i64 noundef %1, i64 noundef %2) unnamed_addr #1 align 2 {
  %4 = alloca ptr, align 8
  %5 = alloca i64, align 8
  %6 = alloca i64, align 8
  %7 = alloca i64, align 8
  store ptr %0, ptr %4, align 8, !tbaa !3
  store i64 %1, ptr %5, align 8, !tbaa !14
  store i64 %2, ptr %6, align 8, !tbaa !14
  %8 = load ptr, ptr %4, align 8
  %9 = load i64, ptr %6, align 8, !tbaa !14
  %10 = icmp ugt i64 %9, 16
  br i1 %10, label %11, label %13

11:                                               ; preds = %3
  %12 = call ptr @__cxa_allocate_exception(i64 8) #11
  call void @_ZNSt9bad_allocC2Ev(ptr noundef nonnull align 8 dereferenceable(8) %12) #11
  call void @__cxa_throw(ptr %12, ptr @_ZTISt9bad_alloc, ptr @_ZNSt9bad_allocD1Ev) #14
  unreachable

13:                                               ; preds = %3
  call void @llvm.lifetime.start.p0(i64 8, ptr %7) #11
  store i64 0, ptr %7, align 8, !tbaa !14
  %14 = load i64, ptr %6, align 8, !tbaa !14
  %15 = call noundef i64 @_ZNK5boost9container3pmr25monotonic_buffer_resource17remaining_storageEmRm(ptr noundef nonnull align 8 dereferenceable(64) %8, i64 noundef %14, ptr noundef nonnull align 8 dereferenceable(8) %7) #11
  %16 = load i64, ptr %5, align 8, !tbaa !14
  %17 = icmp ult i64 %15, %16
  br i1 %17, label %18, label %28

18:                                               ; preds = %13
  store i64 0, ptr %7, align 8, !tbaa !14
  %19 = load i64, ptr %5, align 8, !tbaa !14
  call void @_ZN5boost9container3pmr25monotonic_buffer_resource32increase_next_buffer_at_least_toEm(ptr noundef nonnull align 8 dereferenceable(64) %8, i64 noundef %19)
  %20 = getelementptr inbounds nuw %"class.boost::container::pmr::monotonic_buffer_resource", ptr %8, i32 0, i32 1
  %21 = getelementptr inbounds nuw %"class.boost::container::pmr::monotonic_buffer_resource", ptr %8, i32 0, i32 4
  %22 = load i64, ptr %21, align 8, !tbaa !7
  %23 = call noundef ptr @_ZN5boost9container3pmr11block_slist8allocateEm(ptr noundef nonnull align 8 dereferenceable(16) %20, i64 noundef %22)
  %24 = getelementptr inbounds nuw %"class.boost::container::pmr::monotonic_buffer_resource", ptr %8, i32 0, i32 2
  store ptr %23, ptr %24, align 8, !tbaa !17
  %25 = getelementptr inbounds nuw %"class.boost::container::pmr::monotonic_buffer_resource", ptr %8, i32 0, i32 4
  %26 = load i64, ptr %25, align 8, !tbaa !7
  %27 = getelementptr inbounds nuw %"class.boost::container::pmr::monotonic_buffer_resource", ptr %8, i32 0, i32 3
  store i64 %26, ptr %27, align 8, !tbaa !18
  call void @_ZN5boost9container3pmr25monotonic_buffer_resource20increase_next_bufferEv(ptr noundef nonnull align 8 dereferenceable(64) %8)
  br label %28

28:                                               ; preds = %18, %13
  %29 = load i64, ptr %7, align 8, !tbaa !14
  %30 = load i64, ptr %5, align 8, !tbaa !14
  %31 = call noundef ptr @_ZN5boost9container3pmr25monotonic_buffer_resource21allocate_from_currentEmm(ptr noundef nonnull align 8 dereferenceable(64) %8, i64 noundef %29, i64 noundef %30)
  call void @llvm.lifetime.end.p0(i64 8, ptr %7) #11
  ret ptr %31
}