; Function Attrs: mustprogress uwtable
define noundef ptr @_ZN5boost9container3pmr25monotonic_buffer_resource11do_allocateEmm(ptr nocapture noundef nonnull align 8 dereferenceable(64) %0, i64 noundef %1, i64 noundef %2) unnamed_addr #7 align 2 {
  %4 = icmp ugt i64 %2, 16
  br i1 %4, label %5, label %7

5:                                                ; preds = %3
  %6 = tail call ptr @__cxa_allocate_exception(i64 8) #15
  store ptr getelementptr inbounds inrange(-16, 24) (i8, ptr @_ZTVSt9bad_alloc, i64 16), ptr %6, align 8, !tbaa !13
  tail call void @__cxa_throw(ptr nonnull %6, ptr nonnull @_ZTISt9bad_alloc, ptr nonnull @_ZNSt9bad_allocD1Ev) #18
  unreachable

7:                                                ; preds = %3
  %8 = add nsw i64 %2, -1
  %9 = sub nsw i64 0, %2
  %10 = getelementptr inbounds nuw i8, ptr %0, i64 24
  %11 = load ptr, ptr %10, align 8, !tbaa !17
  %12 = ptrtoint ptr %11 to i64
  %13 = add i64 %8, %12
  %14 = and i64 %13, %9
  %15 = sub i64 %14, %12
  %16 = getelementptr inbounds nuw i8, ptr %0, i64 32
  %17 = load i64, ptr %16, align 8, !tbaa !18
  %spec.select.i = tail call noundef i64 @llvm.usub.sat.i64(i64 %17, i64 %15)
  %18 = icmp ult i64 %spec.select.i, %1
  br i1 %18, label %19, label %48

19:                                               ; preds = %7
  %20 = getelementptr inbounds nuw i8, ptr %0, i64 40
  %21 = load i64, ptr %20, align 8, !tbaa !3
  %22 = icmp ult i64 %21, %1
  br i1 %22, label %23, label %_ZN5boost9container3pmr25monotonic_buffer_resource32increase_next_buffer_at_least_toEm.exit

23:                                               ; preds = %19
  %24 = tail call range(i64 1, 65) i64 @llvm.ctpop.i64(i64 %1)
  %25 = icmp samesign ult i64 %24, 2
  %26 = icmp slt i64 %1, 0
  %or.cond.i = or i1 %26, %25
  br i1 %or.cond.i, label %.sink.split.i, label %27

27:                                               ; preds = %23
  %28 = add nsw i64 %1, -1
  %29 = tail call range(i64 0, 65) i64 @llvm.ctlz.i64(i64 %28, i1 false)
  %30 = sub nuw nsw i64 64, %29
  %31 = shl nuw i64 1, %30
  br label %.sink.split.i

.sink.split.i:                                    ; preds = %27, %23
  %.sink.i = phi i64 [ %31, %27 ], [ %1, %23 ]
  store i64 %.sink.i, ptr %20, align 8, !tbaa !3
  br label %_ZN5boost9container3pmr25monotonic_buffer_resource32increase_next_buffer_at_least_toEm.exit

_ZN5boost9container3pmr25monotonic_buffer_resource32increase_next_buffer_at_least_toEm.exit: ; preds = %19, %.sink.split.i
  %32 = phi i64 [ %21, %19 ], [ %.sink.i, %.sink.split.i ]
  %33 = icmp ugt i64 %32, -17
  br i1 %33, label %34, label %_ZN5boost9container3pmr11block_slist8allocateEm.exit

34:                                               ; preds = %_ZN5boost9container3pmr25monotonic_buffer_resource32increase_next_buffer_at_least_toEm.exit
  tail call void @_ZN5boost9container15throw_bad_allocEv() #18
  unreachable

_ZN5boost9container3pmr11block_slist8allocateEm.exit: ; preds = %_ZN5boost9container3pmr25monotonic_buffer_resource32increase_next_buffer_at_least_toEm.exit
  %35 = getelementptr inbounds nuw i8, ptr %0, i64 8
  %36 = getelementptr inbounds nuw i8, ptr %0, i64 16
  %37 = load ptr, ptr %36, align 8, !tbaa !21
  %38 = add nuw i64 %32, 16
  %39 = load ptr, ptr %37, align 8, !tbaa !13
  %40 = getelementptr inbounds i8, ptr %39, i64 16
  %41 = load ptr, ptr %40, align 8
  %42 = tail call noundef ptr %41(ptr noundef nonnull align 8 dereferenceable(8) %37, i64 noundef %38, i64 noundef 16)
  %43 = getelementptr inbounds nuw i8, ptr %42, i64 8
  store i64 %38, ptr %43, align 8, !tbaa !22
  %44 = load ptr, ptr %35, align 8, !tbaa !15
  store ptr %44, ptr %42, align 8, !tbaa !15
  store ptr %42, ptr %35, align 8, !tbaa !15
  %45 = getelementptr inbounds nuw i8, ptr %42, i64 16
  %46 = load i64, ptr %20, align 8, !tbaa !3
  %47 = shl nuw i64 %46, 1
  %.inv.i = icmp sgt i64 %46, -1
  %spec.select.i6 = select i1 %.inv.i, i64 %47, i64 -1
  store i64 %spec.select.i6, ptr %20, align 8, !tbaa !3
  br label %48

48:                                               ; preds = %_ZN5boost9container3pmr11block_slist8allocateEm.exit, %7
  %49 = phi i64 [ %46, %_ZN5boost9container3pmr11block_slist8allocateEm.exit ], [ %17, %7 ]
  %50 = phi ptr [ %45, %_ZN5boost9container3pmr11block_slist8allocateEm.exit ], [ %11, %7 ]
  %.0 = phi i64 [ 0, %_ZN5boost9container3pmr11block_slist8allocateEm.exit ], [ %15, %7 ]
  %51 = getelementptr inbounds nuw i8, ptr %50, i64 %.0
  %52 = getelementptr inbounds nuw i8, ptr %51, i64 %1
  store ptr %52, ptr %10, align 8, !tbaa !17
  %53 = add i64 %.0, %1
  %54 = sub i64 %49, %53
  store i64 %54, ptr %16, align 8, !tbaa !18
  ret ptr %51
}